target datalayout = "e-m:e-p270:32:32-p271:32:32-p272:64:64-i64:64-i128:128-f80:128-n8:16:32:64-S128"
target triple = "x86_64-pc-linux-gnu"

%struct.AllocateDesc = type { i32, i32, %union.anon }
%union.anon = type { ptr }
%struct.dirent = type { i64, i64, i16, i8, [256 x i8] }

@.str.1 = private unnamed_addr constant [5 x i8] c"fd.c\00", align 1
@.str.15 = private unnamed_addr constant [8 x i8] c"base/%s\00", align 1
@.str.16 = private unnamed_addr constant [10 x i8] c"pgsql_tmp\00", align 1
@.str.18 = private unnamed_addr constant [10 x i8] c"pg_tblspc\00", align 1
@.str.19 = private unnamed_addr constant [16 x i8] c"PG_18_202502112\00", align 1
@allocatedDescs = internal global ptr null, align 8
@numAllocatedDescs = internal global i32 0, align 4
@.str.33 = private unnamed_addr constant [56 x i8] c"dir passed to FreeDir was not obtained from AllocateDir\00", align 1
@__func__.FreeDir = private unnamed_addr constant [8 x i8] c"FreeDir\00", align 1
@.str.35 = private unnamed_addr constant [5 x i8] c"base\00", align 1
@.str.36 = private unnamed_addr constant [2 x i8] c".\00", align 1
@.str.37 = private unnamed_addr constant [3 x i8] c"..\00", align 1
@.str.38 = private unnamed_addr constant [12 x i8] c"%s/%s/%s/%s\00", align 1
@.str.39 = private unnamed_addr constant [9 x i8] c"%s/%s/%s\00", align 1

; Function Attrs: nounwind uwtable
define dso_local i32 @FreeDir(ptr noundef %0) #0 {
  %2 = alloca i32, align 4
  %3 = alloca ptr, align 8
  %4 = alloca i32, align 4
  %5 = alloca i32, align 4
  %6 = alloca ptr, align 8
  store ptr %0, ptr %3, align 8
  call void @llvm.lifetime.start.p0(i64 4, ptr %4) #14
  %7 = load ptr, ptr %3, align 8
  %8 = icmp eq ptr %7, null
  br i1 %8, label %9, label %10

9:                                                ; preds = %1
  store i32 0, ptr %2, align 4
  store i32 1, ptr %5, align 4
  br label %51

10:                                               ; preds = %1
  %11 = load i32, ptr @numAllocatedDescs, align 4
  store i32 %11, ptr %4, align 4
  br label %12

12:                                               ; preds = %37, %10
  %13 = load i32, ptr %4, align 4
  %14 = add i32 %13, -1
  store i32 %14, ptr %4, align 4
  %15 = icmp sge i32 %14, 0
  br i1 %15, label %16, label %38

16:                                               ; preds = %12
  call void @llvm.lifetime.start.p0(i64 8, ptr %6) #14
  %17 = load ptr, ptr @allocatedDescs, align 8
  %18 = load i32, ptr %4, align 4
  %19 = sext i32 %18 to i64
  %20 = getelementptr inbounds %struct.AllocateDesc, ptr %17, i64 %19
  store ptr %20, ptr %6, align 8
  %21 = load ptr, ptr %6, align 8
  %22 = getelementptr inbounds nuw %struct.AllocateDesc, ptr %21, i32 0, i32 0
  %23 = load i32, ptr %22, align 8
  %24 = icmp eq i32 %23, 2
  br i1 %24, label %25, label %34

25:                                               ; preds = %16
  %26 = load ptr, ptr %6, align 8
  %27 = getelementptr inbounds nuw %struct.AllocateDesc, ptr %26, i32 0, i32 2
  %28 = load ptr, ptr %27, align 8
  %29 = load ptr, ptr %3, align 8
  %30 = icmp eq ptr %28, %29
  br i1 %30, label %31, label %34

31:                                               ; preds = %25
  %32 = load ptr, ptr %6, align 8
  %33 = call i32 @FreeDesc(ptr noundef %32)
  store i32 %33, ptr %2, align 4
  store i32 1, ptr %5, align 4
  br label %35

34:                                               ; preds = %25, %16
  store i32 0, ptr %5, align 4
  br label %35

35:                                               ; preds = %34, %31
  call void @llvm.lifetime.end.p0(i64 8, ptr %6) #14
  %36 = load i32, ptr %5, align 4
  switch i32 %36, label %51 [
    i32 0, label %37
  ]

37:                                               ; preds = %35
  br label %12, !llvm.loop !16

38:                                               ; preds = %12
  br label %39

39:                                               ; preds = %38
  br i1 false, label %40, label %42

40:                                               ; preds = %39
  %41 = call zeroext i1 @errstart_cold(i32 noundef 19, ptr noundef null) #16
  br i1 %41, label %44, label %46

42:                                               ; preds = %39
  %43 = call zeroext i1 @errstart(i32 noundef 19, ptr noundef null)
  br i1 %43, label %44, label %46

44:                                               ; preds = %42, %40
  %45 = call i32 (ptr, ...) @errmsg_internal(ptr noundef @.str.33)
  call void @errfinish(ptr noundef @.str.1, i32 noundef 3003, ptr noundef @__func__.FreeDir)
  br label %46

46:                                               ; preds = %44, %42, %40
  br label %47

47:                                               ; preds = %46
  br label %48

48:                                               ; preds = %47
  %49 = load ptr, ptr %3, align 8
  %50 = call i32 @closedir(ptr noundef %49)
  store i32 %50, ptr %2, align 4
  store i32 1, ptr %5, align 4
  br label %51

51:                                               ; preds = %48, %35, %9
  call void @llvm.lifetime.end.p0(i64 4, ptr %4) #14
  %52 = load i32, ptr %2, align 4
  ret i32 %52
}

; Function Attrs: nounwind uwtable
define dso_local void @RemovePgTempFiles() #0 {
  %1 = alloca [1060 x i8], align 16
  %2 = alloca ptr, align 8
  %3 = alloca ptr, align 8
  call void @llvm.lifetime.start.p0(i64 1060, ptr %1) #14
  call void @llvm.lifetime.start.p0(i64 8, ptr %2) #14
  call void @llvm.lifetime.start.p0(i64 8, ptr %3) #14
  %4 = getelementptr inbounds [1060 x i8], ptr %1, i64 0, i64 0
  %5 = call i32 (ptr, i64, ptr, ...) @pg_snprintf(ptr noundef %4, i64 noundef 1060, ptr noundef @.str.15, ptr noundef @.str.16)
  %6 = getelementptr inbounds [1060 x i8], ptr %1, i64 0, i64 0
  call void @RemovePgTempFilesInDir(ptr noundef %6, i1 noundef zeroext true, i1 noundef zeroext false)
  call void @RemovePgTempRelationFiles(ptr noundef @.str.35)
  %7 = call ptr @AllocateDir(ptr noundef @.str.18)
  store ptr %7, ptr %2, align 8
  br label %8

8:                                                ; preds = %25, %24, %0
  %9 = load ptr, ptr %2, align 8
  %10 = call ptr @ReadDirExtended(ptr noundef %9, ptr noundef @.str.18, i32 noundef 15)
  store ptr %10, ptr %3, align 8
  %11 = icmp ne ptr %10, null
  br i1 %11, label %12, label %38

12:                                               ; preds = %8
  %13 = load ptr, ptr %3, align 8
  %14 = getelementptr inbounds nuw %struct.dirent, ptr %13, i32 0, i32 4
  %15 = getelementptr inbounds [256 x i8], ptr %14, i64 0, i64 0
  %16 = call i32 @strcmp(ptr noundef %15, ptr noundef @.str.36) #17
  %17 = icmp eq i32 %16, 0
  br i1 %17, label %24, label %18

18:                                               ; preds = %12
  %19 = load ptr, ptr %3, align 8
  %20 = getelementptr inbounds nuw %struct.dirent, ptr %19, i32 0, i32 4
  %21 = getelementptr inbounds [256 x i8], ptr %20, i64 0, i64 0
  %22 = call i32 @strcmp(ptr noundef %21, ptr noundef @.str.37) #17
  %23 = icmp eq i32 %22, 0
  br i1 %23, label %24, label %25

24:                                               ; preds = %18, %12
  br label %8, !llvm.loop !23

25:                                               ; preds = %18
  %26 = getelementptr inbounds [1060 x i8], ptr %1, i64 0, i64 0
  %27 = load ptr, ptr %3, align 8
  %28 = getelementptr inbounds nuw %struct.dirent, ptr %27, i32 0, i32 4
  %29 = getelementptr inbounds [256 x i8], ptr %28, i64 0, i64 0
  %30 = call i32 (ptr, i64, ptr, ...) @pg_snprintf(ptr noundef %26, i64 noundef 1060, ptr noundef @.str.38, ptr noundef @.str.18, ptr noundef %29, ptr noundef @.str.19, ptr noundef @.str.16)
  %31 = getelementptr inbounds [1060 x i8], ptr %1, i64 0, i64 0
  call void @RemovePgTempFilesInDir(ptr noundef %31, i1 noundef zeroext true, i1 noundef zeroext false)
  %32 = getelementptr inbounds [1060 x i8], ptr %1, i64 0, i64 0
  %33 = load ptr, ptr %3, align 8
  %34 = getelementptr inbounds nuw %struct.dirent, ptr %33, i32 0, i32 4
  %35 = getelementptr inbounds [256 x i8], ptr %34, i64 0, i64 0
  %36 = call i32 (ptr, i64, ptr, ...) @pg_snprintf(ptr noundef %32, i64 noundef 1060, ptr noundef @.str.39, ptr noundef @.str.18, ptr noundef %35, ptr noundef @.str.19)
  %37 = getelementptr inbounds [1060 x i8], ptr %1, i64 0, i64 0
  call void @RemovePgTempRelationFiles(ptr noundef %37)
  br label %8, !llvm.loop !23

38:                                               ; preds = %8
  %39 = load ptr, ptr %2, align 8
  %40 = call i32 @FreeDir(ptr noundef %39)
  call void @llvm.lifetime.end.p0(i64 8, ptr %3) #14
  call void @llvm.lifetime.end.p0(i64 8, ptr %2) #14
  call void @llvm.lifetime.end.p0(i64 1060, ptr %1) #14
  ret void
}