; Function Attrs: nounwind uwtable
define dso_local void @RemovePgTempFiles() local_unnamed_addr #0 {
  %1 = alloca [1060 x i8], align 16
  call void @llvm.lifetime.start.p0(i64 1060, ptr nonnull %1) #25
  %2 = call i32 (ptr, i64, ptr, ...) @pg_snprintf(ptr noundef nonnull %1, i64 noundef 1060, ptr noundef nonnull @.str.15, ptr noundef nonnull @.str.16) #25
  call void @RemovePgTempFilesInDir(ptr noundef nonnull %1, i1 noundef zeroext true, i1 noundef zeroext false)
  call fastcc void @RemovePgTempRelationFiles(ptr noundef nonnull @.str.35)
  %3 = call ptr @AllocateDir(ptr noundef nonnull @.str.18)
  %4 = call ptr @ReadDirExtended(ptr noundef %3, ptr noundef nonnull @.str.18, i32 noundef 15)
  %.not11 = icmp eq ptr %4, null
  br i1 %.not11, label %._crit_edge, label %sub_0

sub_0:                                            ; preds = %0, %.backedge
  %5 = phi ptr [ %16, %.backedge ], [ %4, %0 ]
  %6 = getelementptr inbounds nuw i8, ptr %5, i64 19
  %7 = load i8, ptr %6, align 1
  %.not12 = icmp eq i8 %7, 46
  br i1 %.not12, label %.tail, label %.tail6.thread

.tail:                                            ; preds = %sub_0
  %8 = getelementptr inbounds nuw i8, ptr %5, i64 20
  %9 = load i8, ptr %8, align 1
  %10 = icmp eq i8 %9, 0
  br i1 %10, label %.backedge, label %sub_18

sub_18:                                           ; preds = %.tail
  %11 = getelementptr inbounds nuw i8, ptr %5, i64 20
  %12 = load i8, ptr %11, align 1
  %.not14 = icmp eq i8 %12, 46
  br i1 %.not14, label %.tail6, label %.tail6.thread

.tail6:                                           ; preds = %sub_18
  %13 = getelementptr inbounds nuw i8, ptr %5, i64 21
  %14 = load i8, ptr %13, align 1
  %15 = icmp eq i8 %14, 0
  br i1 %15, label %.backedge, label %.tail6.thread

.backedge:                                        ; preds = %.tail, %.tail6, %.tail6.thread
  %16 = call ptr @ReadDirExtended(ptr noundef %3, ptr noundef nonnull @.str.18, i32 noundef 15)
  %.not = icmp eq ptr %16, null
  br i1 %.not, label %._crit_edge, label %sub_0, !llvm.loop !23

.tail6.thread:                                    ; preds = %sub_0, %sub_18, %.tail6
  %17 = call i32 (ptr, i64, ptr, ...) @pg_snprintf(ptr noundef nonnull %1, i64 noundef 1060, ptr noundef nonnull @.str.38, ptr noundef nonnull @.str.18, ptr noundef nonnull %6, ptr noundef nonnull @.str.19, ptr noundef nonnull @.str.16) #25
  call void @RemovePgTempFilesInDir(ptr noundef nonnull %1, i1 noundef zeroext true, i1 noundef zeroext false)
  %18 = call i32 (ptr, i64, ptr, ...) @pg_snprintf(ptr noundef nonnull %1, i64 noundef 1060, ptr noundef nonnull @.str.39, ptr noundef nonnull @.str.18, ptr noundef nonnull %6, ptr noundef nonnull @.str.19) #25
  call fastcc void @RemovePgTempRelationFiles(ptr noundef nonnull %1)
  br label %.backedge

._crit_edge:                                      ; preds = %.backedge, %0
  %19 = icmp eq ptr %3, null
  br i1 %19, label %FreeDir.exit, label %20

20:                                               ; preds = %._crit_edge
  %21 = load i32, ptr @numAllocatedDescs, align 4
  %22 = add i32 %21, -1
  %23 = icmp sgt i32 %22, -1
  br i1 %23, label %.lr.ph.i, label %._crit_edge.i

.lr.ph.i:                                         ; preds = %20
  %24 = load ptr, ptr @allocatedDescs, align 8
  %25 = zext nneg i32 %22 to i64
  br label %26

26:                                               ; preds = %35, %.lr.ph.i
  %indvars.iv.i = phi i64 [ %25, %.lr.ph.i ], [ %indvars.iv.next.i, %35 ]
  %27 = getelementptr inbounds nuw %struct.AllocateDesc, ptr %24, i64 %indvars.iv.i
  %28 = load i32, ptr %27, align 8
  %29 = icmp eq i32 %28, 2
  br i1 %29, label %30, label %35

30:                                               ; preds = %26
  %31 = getelementptr inbounds nuw i8, ptr %27, i64 8
  %32 = load ptr, ptr %31, align 8
  %33 = icmp eq ptr %32, %3
  br i1 %33, label %.thread.i, label %35

.thread.i:                                        ; preds = %30
  %34 = call fastcc i32 @FreeDesc(ptr noundef nonnull %27)
  br label %FreeDir.exit

35:                                               ; preds = %30, %26
  %indvars.iv.next.i = add nsw i64 %indvars.iv.i, -1
  %36 = icmp sgt i64 %indvars.iv.i, 0
  br i1 %36, label %26, label %._crit_edge.i, !llvm.loop !14

._crit_edge.i:                                    ; preds = %35, %20
  %37 = call zeroext i1 @errstart(i32 noundef 19, ptr noundef null) #25
  br i1 %37, label %38, label %40

38:                                               ; preds = %._crit_edge.i
  %39 = call i32 (ptr, ...) @errmsg_internal(ptr noundef nonnull @.str.33) #25
  call void @errfinish(ptr noundef nonnull @.str.1, i32 noundef 3003, ptr noundef nonnull @__func__.FreeDir) #25
  br label %40

40:                                               ; preds = %38, %._crit_edge.i
  %41 = call i32 @closedir(ptr noundef nonnull %3)
  br label %FreeDir.exit

FreeDir.exit:                                     ; preds = %._crit_edge, %.thread.i, %40
  call void @llvm.lifetime.end.p0(i64 1060, ptr nonnull %1) #25
  ret void
}